ccopy_reg
_reconstructor
p0
(ckeras.preprocessing.image
ImageDataGenerator
p1
c__builtin__
object
p2
Ntp3
Rp4
(dp5
S'featurewise_center'
p6
I01
sS'zoom_range'
p7
(lp8
F1.0
aF1.0
asS'principal_components'
p9
NsS'shear_range'
p10
F0.0
sS'rescale'
p11
NsS'vertical_flip'
p12
I00
sS'dim_ordering'
p13
S'tf'
p14
sS'col_index'
p15
I2
sS'featurewise_std_normalization'
p16
I01
sS'row_index'
p17
I1
sS'cval'
p18
F0.0
sS'rotation_range'
p19
F0.0
sS'samplewise_center'
p20
I00
sS'std'
p21
cnumpy.core.multiarray
scalar
p22
(cnumpy
dtype
p23
(S'f4'
p24
I0
I1
tp25
Rp26
(I3
S'<'
p27
NNNI-1
I-1
I0
tp28
bS'\x00\x00\xc0\xff'
p29
tp30
Rp31
sS'width_shift_range'
p32
F0.0
sS'channel_shift_range'
p33
F0.0
sS'channel_index'
p34
I3
sS'self'
p35
g4
sS'samplewise_std_normalization'
p36
I00
sS'fill_mode'
p37
S'nearest'
p38
sS'height_shift_range'
p39
F0.0
sS'horizontal_flip'
p40
I00
sS'zca_whitening'
p41
I00
sS'mean'
p42
g22
(g26
S'\x00\x00\xc0\xff'
p43
tp44
Rp45
sb.